target datalayout = "e-m:e-p270:32:32-p271:32:32-p272:64:64-i64:64-i128:128-f80:128-n8:16:32:64-S128"
target triple = "x86_64-pc-linux-gnu"

%struct.jpeg_decompress_struct = type { ptr, ptr, ptr, ptr, i32, i32, ptr, i32, i32, i32, i32, i32, i32, i32, double, i32, i32, i32, i32, i32, i32, i32, i32, i32, i32, i32, i32, i32, i32, i32, i32, i32, i32, ptr, i32, i32, i32, i32, i32, ptr, [4 x ptr], [4 x ptr], [4 x ptr], i32, ptr, i32, i32, [16 x i8], [16 x i8], [16 x i8], i32, i32, i8, i8, i8, i16, i16, i32, i8, i32, ptr, i32, i32, i32, i32, ptr, i32, [4 x ptr], i32, i32, i32, [10 x i32], i32, i32, i32, i32, i32, ptr, ptr, ptr, ptr, ptr, ptr, ptr, ptr, ptr, ptr, ptr }
%struct.jpeg_error_mgr = type { ptr, ptr, ptr, ptr, ptr, i32, %union.anon, i32, i64, ptr, i32, ptr, i32, i32 }
%union.anon = type { [8 x i32], [48 x i8] }
%struct.gif_dest_struct = type { %struct.djpeg_dest_struct, ptr, i32, i16, i32, i32, i32, i16, i32, i16, i16, i16, i16, ptr, ptr, i32, [256 x i8] }
%struct.djpeg_dest_struct = type { ptr, ptr, ptr, ptr, ptr, ptr, ptr, ptr, i32 }

; Function Attrs: nounwind uwtable
define internal void @flush_packet(ptr noundef %0) #0 {
  %2 = alloca ptr, align 8
  store ptr %0, ptr %2, align 8, !tbaa !43
  %3 = load ptr, ptr %2, align 8, !tbaa !43
  %4 = getelementptr inbounds nuw %struct.gif_dest_struct, ptr %3, i32 0, i32 15
  %5 = load i32, ptr %4, align 8, !tbaa !88
  %6 = icmp sgt i32 %5, 0
  br i1 %6, label %7, label %53

7:                                                ; preds = %1
  %8 = load ptr, ptr %2, align 8, !tbaa !43
  %9 = getelementptr inbounds nuw %struct.gif_dest_struct, ptr %8, i32 0, i32 15
  %10 = load i32, ptr %9, align 8, !tbaa !88
  %11 = add nsw i32 %10, 1
  store i32 %11, ptr %9, align 8, !tbaa !88
  %12 = trunc i32 %10 to i8
  %13 = load ptr, ptr %2, align 8, !tbaa !43
  %14 = getelementptr inbounds nuw %struct.gif_dest_struct, ptr %13, i32 0, i32 16
  %15 = getelementptr inbounds [256 x i8], ptr %14, i64 0, i64 0
  store i8 %12, ptr %15, align 4, !tbaa !38
  %16 = load ptr, ptr %2, align 8, !tbaa !43
  %17 = getelementptr inbounds nuw %struct.gif_dest_struct, ptr %16, i32 0, i32 16
  %18 = getelementptr inbounds [256 x i8], ptr %17, i64 0, i64 0
  %19 = load ptr, ptr %2, align 8, !tbaa !43
  %20 = getelementptr inbounds nuw %struct.gif_dest_struct, ptr %19, i32 0, i32 15
  %21 = load i32, ptr %20, align 8, !tbaa !88
  %22 = sext i32 %21 to i64
  %23 = load ptr, ptr %2, align 8, !tbaa !43
  %24 = getelementptr inbounds nuw %struct.gif_dest_struct, ptr %23, i32 0, i32 0
  %25 = getelementptr inbounds nuw %struct.djpeg_dest_struct, ptr %24, i32 0, i32 4
  %26 = load ptr, ptr %25, align 8, !tbaa !69
  %27 = call i64 @fwrite(ptr noundef %18, i64 noundef 1, i64 noundef %22, ptr noundef %26)
  %28 = load ptr, ptr %2, align 8, !tbaa !43
  %29 = getelementptr inbounds nuw %struct.gif_dest_struct, ptr %28, i32 0, i32 15
  %30 = load i32, ptr %29, align 8, !tbaa !88
  %31 = sext i32 %30 to i64
  %32 = icmp ne i64 %27, %31
  br i1 %32, label %33, label %50

33:                                               ; preds = %7
  %34 = load ptr, ptr %2, align 8, !tbaa !43
  %35 = getelementptr inbounds nuw %struct.gif_dest_struct, ptr %34, i32 0, i32 1
  %36 = load ptr, ptr %35, align 8, !tbaa !44
  %37 = getelementptr inbounds nuw %struct.jpeg_decompress_struct, ptr %36, i32 0, i32 0
  %38 = load ptr, ptr %37, align 8, !tbaa !34
  %39 = getelementptr inbounds nuw %struct.jpeg_error_mgr, ptr %38, i32 0, i32 5
  store i32 37, ptr %39, align 8, !tbaa !35
  %40 = load ptr, ptr %2, align 8, !tbaa !43
  %41 = getelementptr inbounds nuw %struct.gif_dest_struct, ptr %40, i32 0, i32 1
  %42 = load ptr, ptr %41, align 8, !tbaa !44
  %43 = getelementptr inbounds nuw %struct.jpeg_decompress_struct, ptr %42, i32 0, i32 0
  %44 = load ptr, ptr %43, align 8, !tbaa !34
  %45 = getelementptr inbounds nuw %struct.jpeg_error_mgr, ptr %44, i32 0, i32 0
  %46 = load ptr, ptr %45, align 8, !tbaa !39
  %47 = load ptr, ptr %2, align 8, !tbaa !43
  %48 = getelementptr inbounds nuw %struct.gif_dest_struct, ptr %47, i32 0, i32 1
  %49 = load ptr, ptr %48, align 8, !tbaa !44
  call void %46(ptr noundef %49)
  br label %50

50:                                               ; preds = %33, %7
  %51 = load ptr, ptr %2, align 8, !tbaa !43
  %52 = getelementptr inbounds nuw %struct.gif_dest_struct, ptr %51, i32 0, i32 15
  store i32 0, ptr %52, align 8, !tbaa !88
  br label %53

53:                                               ; preds = %50, %1
  ret void
}

; Function Attrs: nounwind uwtable
define internal void @compress_term(ptr noundef %0) #0 {
  %2 = alloca ptr, align 8
  store ptr %0, ptr %2, align 8, !tbaa !43
  %3 = load ptr, ptr %2, align 8, !tbaa !43
  %4 = getelementptr inbounds nuw %struct.gif_dest_struct, ptr %3, i32 0, i32 8
  %5 = load i32, ptr %4, align 8, !tbaa !72
  %6 = icmp ne i32 %5, 0
  br i1 %6, label %12, label %7

7:                                                ; preds = %1
  %8 = load ptr, ptr %2, align 8, !tbaa !43
  %9 = load ptr, ptr %2, align 8, !tbaa !43
  %10 = getelementptr inbounds nuw %struct.gif_dest_struct, ptr %9, i32 0, i32 7
  %11 = load i16, ptr %10, align 4, !tbaa !73
  call void @output(ptr noundef %8, i16 noundef signext %11)
  br label %12

12:                                               ; preds = %7, %1
  %13 = load ptr, ptr %2, align 8, !tbaa !43
  %14 = load ptr, ptr %2, align 8, !tbaa !43
  %15 = getelementptr inbounds nuw %struct.gif_dest_struct, ptr %14, i32 0, i32 10
  %16 = load i16, ptr %15, align 2, !tbaa !87
  call void @output(ptr noundef %13, i16 noundef signext %16)
  %17 = load ptr, ptr %2, align 8, !tbaa !43
  %18 = getelementptr inbounds nuw %struct.gif_dest_struct, ptr %17, i32 0, i32 6
  %19 = load i32, ptr %18, align 8, !tbaa !90
  %20 = icmp sgt i32 %19, 0
  br i1 %20, label %21, label %42

21:                                               ; preds = %12
  %22 = load ptr, ptr %2, align 8, !tbaa !43
  %23 = getelementptr inbounds nuw %struct.gif_dest_struct, ptr %22, i32 0, i32 5
  %24 = load i32, ptr %23, align 4, !tbaa !89
  %25 = and i32 %24, 255
  %26 = trunc i32 %25 to i8
  %27 = load ptr, ptr %2, align 8, !tbaa !43
  %28 = getelementptr inbounds nuw %struct.gif_dest_struct, ptr %27, i32 0, i32 16
  %29 = load ptr, ptr %2, align 8, !tbaa !43
  %30 = getelementptr inbounds nuw %struct.gif_dest_struct, ptr %29, i32 0, i32 15
  %31 = load i32, ptr %30, align 8, !tbaa !88
  %32 = add nsw i32 %31, 1
  store i32 %32, ptr %30, align 8, !tbaa !88
  %33 = sext i32 %32 to i64
  %34 = getelementptr inbounds [256 x i8], ptr %28, i64 0, i64 %33
  store i8 %26, ptr %34, align 1, !tbaa !38
  %35 = load ptr, ptr %2, align 8, !tbaa !43
  %36 = getelementptr inbounds nuw %struct.gif_dest_struct, ptr %35, i32 0, i32 15
  %37 = load i32, ptr %36, align 8, !tbaa !88
  %38 = icmp sge i32 %37, 255
  br i1 %38, label %39, label %41

39:                                               ; preds = %21
  %40 = load ptr, ptr %2, align 8, !tbaa !43
  call void @flush_packet(ptr noundef %40)
  br label %41

41:                                               ; preds = %39, %21
  br label %42

42:                                               ; preds = %41, %12
  %43 = load ptr, ptr %2, align 8, !tbaa !43
  call void @flush_packet(ptr noundef %43)
  ret void
}

; Function Attrs: nounwind uwtable
define internal void @finish_output_gif(ptr noundef %0, ptr noundef %1) #0 {
  %3 = alloca ptr, align 8
  %4 = alloca ptr, align 8
  %5 = alloca ptr, align 8
  store ptr %0, ptr %3, align 8, !tbaa !4
  store ptr %1, ptr %4, align 8, !tbaa !65
  call void @llvm.lifetime.start.p0(i64 8, ptr %5) #5
  %6 = load ptr, ptr %4, align 8, !tbaa !65
  store ptr %6, ptr %5, align 8, !tbaa !43
  %7 = load ptr, ptr %5, align 8, !tbaa !43
  call void @compress_term(ptr noundef %7)
  %8 = load ptr, ptr %5, align 8, !tbaa !43
  %9 = getelementptr inbounds nuw %struct.gif_dest_struct, ptr %8, i32 0, i32 0
  %10 = getelementptr inbounds nuw %struct.djpeg_dest_struct, ptr %9, i32 0, i32 4
  %11 = load ptr, ptr %10, align 8, !tbaa !69
  %12 = call i32 @putc(i32 noundef 0, ptr noundef %11)
  %13 = load ptr, ptr %5, align 8, !tbaa !43
  %14 = getelementptr inbounds nuw %struct.gif_dest_struct, ptr %13, i32 0, i32 0
  %15 = getelementptr inbounds nuw %struct.djpeg_dest_struct, ptr %14, i32 0, i32 4
  %16 = load ptr, ptr %15, align 8, !tbaa !69
  %17 = call i32 @putc(i32 noundef 59, ptr noundef %16)
  %18 = load ptr, ptr %5, align 8, !tbaa !43
  %19 = getelementptr inbounds nuw %struct.gif_dest_struct, ptr %18, i32 0, i32 0
  %20 = getelementptr inbounds nuw %struct.djpeg_dest_struct, ptr %19, i32 0, i32 4
  %21 = load ptr, ptr %20, align 8, !tbaa !69
  %22 = call i32 @fflush(ptr noundef %21)
  %23 = load ptr, ptr %5, align 8, !tbaa !43
  %24 = getelementptr inbounds nuw %struct.gif_dest_struct, ptr %23, i32 0, i32 0
  %25 = getelementptr inbounds nuw %struct.djpeg_dest_struct, ptr %24, i32 0, i32 4
  %26 = load ptr, ptr %25, align 8, !tbaa !69
  %27 = call i32 @ferror(ptr noundef %26) #5
  %28 = icmp ne i32 %27, 0
  br i1 %28, label %29, label %40

29:                                               ; preds = %2
  %30 = load ptr, ptr %3, align 8, !tbaa !4
  %31 = getelementptr inbounds nuw %struct.jpeg_decompress_struct, ptr %30, i32 0, i32 0
  %32 = load ptr, ptr %31, align 8, !tbaa !34
  %33 = getelementptr inbounds nuw %struct.jpeg_error_mgr, ptr %32, i32 0, i32 5
  store i32 37, ptr %33, align 8, !tbaa !35
  %34 = load ptr, ptr %3, align 8, !tbaa !4
  %35 = getelementptr inbounds nuw %struct.jpeg_decompress_struct, ptr %34, i32 0, i32 0
  %36 = load ptr, ptr %35, align 8, !tbaa !34
  %37 = getelementptr inbounds nuw %struct.jpeg_error_mgr, ptr %36, i32 0, i32 0
  %38 = load ptr, ptr %37, align 8, !tbaa !39
  %39 = load ptr, ptr %3, align 8, !tbaa !4
  call void %38(ptr noundef %39)
  br label %40

40:                                               ; preds = %29, %2
  call void @llvm.lifetime.end.p0(i64 8, ptr %5) #5
  ret void
}