; Function Attrs: nounwind uwtable
define internal void @finish_output_gif(ptr noundef %0, ptr noundef captures(none) %1) #0 {
  %3 = getelementptr inbounds nuw i8, ptr %1, i64 104
  %4 = load i32, ptr %3, align 8, !tbaa !64
  %.not.i = icmp eq i32 %4, 0
  br i1 %.not.i, label %5, label %8

5:                                                ; preds = %2
  %6 = getelementptr inbounds nuw i8, ptr %1, i64 100
  %7 = load i16, ptr %6, align 4, !tbaa !65
  tail call fastcc void @output(ptr noundef nonnull %1, i16 noundef signext %7)
  br label %8

8:                                                ; preds = %5, %2
  %9 = getelementptr inbounds nuw i8, ptr %1, i64 110
  %10 = load i16, ptr %9, align 2, !tbaa !66
  tail call fastcc void @output(ptr noundef nonnull %1, i16 noundef signext %10)
  %11 = getelementptr inbounds nuw i8, ptr %1, i64 96
  %12 = load i32, ptr %11, align 8, !tbaa !67
  %13 = icmp sgt i32 %12, 0
  br i1 %13, label %14, label %._crit_edge.i

._crit_edge.i:                                    ; preds = %8
  %.phi.trans.insert.i = getelementptr inbounds nuw i8, ptr %1, i64 136
  %.pre.i = load i32, ptr %.phi.trans.insert.i, align 8, !tbaa !68
  br label %41

14:                                               ; preds = %8
  %15 = getelementptr inbounds nuw i8, ptr %1, i64 92
  %16 = load i32, ptr %15, align 4, !tbaa !69
  %17 = trunc i32 %16 to i8
  %18 = getelementptr inbounds nuw i8, ptr %1, i64 140
  %19 = getelementptr inbounds nuw i8, ptr %1, i64 136
  %20 = load i32, ptr %19, align 8, !tbaa !68
  %21 = add nsw i32 %20, 1
  store i32 %21, ptr %19, align 8, !tbaa !68
  %22 = sext i32 %21 to i64
  %23 = getelementptr inbounds [256 x i8], ptr %18, i64 0, i64 %22
  store i8 %17, ptr %23, align 1, !tbaa !35
  %24 = load i32, ptr %19, align 8, !tbaa !68
  %25 = icmp sgt i32 %24, 254
  br i1 %25, label %26, label %41

26:                                               ; preds = %14
  %27 = add nuw nsw i32 %24, 1
  store i32 %27, ptr %19, align 8, !tbaa !68
  %28 = trunc i32 %24 to i8
  store i8 %28, ptr %18, align 4, !tbaa !35
  %29 = zext nneg i32 %27 to i64
  %30 = getelementptr inbounds nuw i8, ptr %1, i64 32
  %31 = load ptr, ptr %30, align 8, !tbaa !70
  %32 = tail call i64 @fwrite(ptr noundef nonnull %18, i64 noundef 1, i64 noundef %29, ptr noundef %31)
  %33 = load i32, ptr %19, align 8, !tbaa !68
  %34 = sext i32 %33 to i64
  %.not.i.i = icmp eq i64 %32, %34
  br i1 %.not.i.i, label %.thread.i, label %35

35:                                               ; preds = %26
  %36 = getelementptr inbounds nuw i8, ptr %1, i64 72
  %37 = load ptr, ptr %36, align 8, !tbaa !40
  %38 = load ptr, ptr %37, align 8, !tbaa !31
  %39 = getelementptr inbounds nuw i8, ptr %38, i64 40
  store i32 37, ptr %39, align 8, !tbaa !32
  %40 = load ptr, ptr %38, align 8, !tbaa !36
  tail call void %40(ptr noundef nonnull %37) #7
  br label %.thread.i

.thread.i:                                        ; preds = %35, %26
  store i32 0, ptr %19, align 8, !tbaa !68
  br label %compress_term.exit

41:                                               ; preds = %14, %._crit_edge.i
  %42 = phi i32 [ %.pre.i, %._crit_edge.i ], [ %24, %14 ]
  %43 = getelementptr inbounds nuw i8, ptr %1, i64 136
  %44 = icmp sgt i32 %42, 0
  br i1 %44, label %45, label %compress_term.exit

45:                                               ; preds = %41
  %46 = add nuw nsw i32 %42, 1
  store i32 %46, ptr %43, align 8, !tbaa !68
  %47 = trunc i32 %42 to i8
  %48 = getelementptr inbounds nuw i8, ptr %1, i64 140
  store i8 %47, ptr %48, align 4, !tbaa !35
  %49 = zext nneg i32 %46 to i64
  %50 = getelementptr inbounds nuw i8, ptr %1, i64 32
  %51 = load ptr, ptr %50, align 8, !tbaa !70
  %52 = tail call i64 @fwrite(ptr noundef nonnull %48, i64 noundef 1, i64 noundef %49, ptr noundef %51)
  %53 = load i32, ptr %43, align 8, !tbaa !68
  %54 = sext i32 %53 to i64
  %.not.i12.i = icmp eq i64 %52, %54
  br i1 %.not.i12.i, label %61, label %55

55:                                               ; preds = %45
  %56 = getelementptr inbounds nuw i8, ptr %1, i64 72
  %57 = load ptr, ptr %56, align 8, !tbaa !40
  %58 = load ptr, ptr %57, align 8, !tbaa !31
  %59 = getelementptr inbounds nuw i8, ptr %58, i64 40
  store i32 37, ptr %59, align 8, !tbaa !32
  %60 = load ptr, ptr %58, align 8, !tbaa !36
  tail call void %60(ptr noundef nonnull %57) #7
  br label %61

61:                                               ; preds = %55, %45
  store i32 0, ptr %43, align 8, !tbaa !68
  br label %compress_term.exit

compress_term.exit:                               ; preds = %.thread.i, %41, %61
  %62 = getelementptr inbounds nuw i8, ptr %1, i64 32
  %63 = load ptr, ptr %62, align 8, !tbaa !70
  %64 = tail call i32 @putc(i32 noundef 0, ptr noundef %63)
  %65 = load ptr, ptr %62, align 8, !tbaa !70
  %66 = tail call i32 @putc(i32 noundef 59, ptr noundef %65)
  %67 = load ptr, ptr %62, align 8, !tbaa !70
  %68 = tail call i32 @fflush(ptr noundef %67)
  %69 = load ptr, ptr %62, align 8, !tbaa !70
  %70 = tail call i32 @ferror(ptr noundef %69) #7
  %.not = icmp eq i32 %70, 0
  br i1 %.not, label %75, label %71

71:                                               ; preds = %compress_term.exit
  %72 = load ptr, ptr %0, align 8, !tbaa !31
  %73 = getelementptr inbounds nuw i8, ptr %72, i64 40
  store i32 37, ptr %73, align 8, !tbaa !32
  %74 = load ptr, ptr %72, align 8, !tbaa !36
  tail call void %74(ptr noundef nonnull %0) #7
  br label %75

75:                                               ; preds = %71, %compress_term.exit
  ret void
}